; ModuleID = 'source-C-CXX/46/4690.c'
source_filename = "source-C-CXX/46/4690.c"
target datalayout = "e-m:e-p270:32:32-p271:32:32-p272:64:64-i64:64-f80:128-n8:16:32:64-S128"
target triple = "x86_64-pc-linux-gnu"

@.str = private unnamed_addr constant [3 x i8] c"%d\00", align 1
@.str.1 = private unnamed_addr constant [4 x i8] c"%d \00", align 1

; Function Attrs: nofree nounwind sspstrong uwtable
define dso_local i32 @main(i32 %0, i8** nocapture readnone %1) local_unnamed_addr #0 {
  %3 = alloca i32, align 4
  %4 = alloca i32, align 4
  %5 = alloca [1000 x i32], align 16
  %6 = bitcast i32* %3 to i8*
  call void @llvm.lifetime.start.p0i8(i64 4, i8* nonnull %6) #3
  %7 = bitcast i32* %4 to i8*
  call void @llvm.lifetime.start.p0i8(i64 4, i8* nonnull %7) #3
  %8 = call i32 (i8*, ...) @__isoc99_scanf(i8* getelementptr inbounds ([3 x i8], [3 x i8]* @.str, i64 0, i64 0), i32* nonnull %3)
  %9 = bitcast [1000 x i32]* %5 to i8*
  call void @llvm.lifetime.start.p0i8(i64 4000, i8* nonnull %9) #3
  %10 = load i32, i32* %3, align 4, !tbaa !5
  %11 = icmp slt i32 %10, 1
  br i1 %11, label %32, label %16

12:                                               ; preds = %16
  %13 = icmp sgt i32 %22, 1
  br i1 %13, label %14, label %32

14:                                               ; preds = %12
  %15 = zext i32 %22 to i64
  br label %25

16:                                               ; preds = %2, %16
  %17 = phi i64 [ %21, %16 ], [ 1, %2 ]
  %18 = call i32 (i8*, ...) @__isoc99_scanf(i8* getelementptr inbounds ([3 x i8], [3 x i8]* @.str, i64 0, i64 0), i32* nonnull %4)
  %19 = load i32, i32* %4, align 4, !tbaa !5
  %20 = getelementptr inbounds [1000 x i32], [1000 x i32]* %5, i64 0, i64 %17
  store i32 %19, i32* %20, align 4, !tbaa !5
  %21 = add nuw nsw i64 %17, 1
  %22 = load i32, i32* %3, align 4, !tbaa !5
  %23 = sext i32 %22 to i64
  %24 = icmp slt i64 %17, %23
  br i1 %24, label %16, label %12, !llvm.loop !9

25:                                               ; preds = %14, %25
  %26 = phi i64 [ %15, %14 ], [ %31, %25 ]
  %27 = getelementptr inbounds [1000 x i32], [1000 x i32]* %5, i64 0, i64 %26
  %28 = load i32, i32* %27, align 4, !tbaa !5
  store i32 %28, i32* %4, align 4, !tbaa !5
  %29 = call i32 (i8*, ...) @printf(i8* nonnull dereferenceable(1) getelementptr inbounds ([4 x i8], [4 x i8]* @.str.1, i64 0, i64 0), i32 %28)
  %30 = icmp sgt i64 %26, 2
  %31 = add nsw i64 %26, -1
  br i1 %30, label %25, label %32, !llvm.loop !11

32:                                               ; preds = %25, %2, %12
  %33 = getelementptr inbounds [1000 x i32], [1000 x i32]* %5, i64 0, i64 1
  %34 = load i32, i32* %33, align 4, !tbaa !5
  store i32 %34, i32* %4, align 4, !tbaa !5
  %35 = call i32 (i8*, ...) @printf(i8* nonnull dereferenceable(1) getelementptr inbounds ([3 x i8], [3 x i8]* @.str, i64 0, i64 0), i32 %34)
  call void @llvm.lifetime.end.p0i8(i64 4000, i8* nonnull %9) #3
  call void @llvm.lifetime.end.p0i8(i64 4, i8* nonnull %7) #3
  call void @llvm.lifetime.end.p0i8(i64 4, i8* nonnull %6) #3
  ret i32 0
}

; Function Attrs: argmemonly mustprogress nofree nosync nounwind willreturn
declare void @llvm.lifetime.start.p0i8(i64 immarg, i8* nocapture) #1

; Function Attrs: nofree nounwind
declare noundef i32 @__isoc99_scanf(i8* nocapture noundef readonly, ...) local_unnamed_addr #2

; Function Attrs: nofree nounwind
declare noundef i32 @printf(i8* nocapture noundef readonly, ...) local_unnamed_addr #2

; Function Attrs: argmemonly mustprogress nofree nosync nounwind willreturn
declare void @llvm.lifetime.end.p0i8(i64 immarg, i8* nocapture) #1


!llvm.module.flags = !{!0, !1, !2, !3}
!llvm.ident = !{!4}

!0 = !{i32 1, !"wchar_size", i32 4}
!1 = !{i32 7, !"PIC Level", i32 2}
!2 = !{i32 7, !"PIE Level", i32 2}
!3 = !{i32 7, !"uwtable", i32 1}
!4 = !{!"clang version 13.0.0"}
!5 = !{!6, !6, i64 0}
!6 = !{!"int", !7, i64 0}
!7 = !{!"omnipotent char", !8, i64 0}
!8 = !{!"Simple C/C++ TBAA"}
!9 = distinct !{!9, !10}
!10 = !{!"llvm.loop.mustprogress"}
!11 = distinct !{!11, !10}
